; ModuleID = 'bench/abc/original/ioReadVerilog.ll'
source_filename = "bench/abc/original/ioReadVerilog.ll"
target datalayout = "e-m:e-p270:32:32-p271:32:32-p272:64:64-i64:64-i128:128-f80:128-n8:16:32:64-S128"
target triple = "x86_64-pc-linux-gnu"

@.str = private unnamed_addr constant [48 x i8] c"Warning: The design has %d root-level modules: \00", align 1
@.str.1 = private unnamed_addr constant [4 x i8] c" %s\00", align 1
@.str.3 = private unnamed_addr constant [34 x i8] c"The first one (%s) will be used.\0A\00", align 1

; Function Attrs: nounwind uwtable
define ptr @Io_ReadVerilog(ptr noundef %0, i32 noundef %1) local_unnamed_addr #0 {
  %3 = tail call ptr @Ver_ParseFile(ptr noundef %0, ptr noundef null, i32 noundef %1, i32 noundef 1) #4
  %4 = icmp eq ptr %3, null
  br i1 %4, label %43, label %5

5:                                                ; preds = %2
  %6 = tail call i32 @Abc_DesFindTopLevelModels(ptr noundef nonnull %3) #4
  %7 = getelementptr inbounds nuw i8, ptr %3, i64 16
  %8 = load ptr, ptr %7, align 8, !tbaa !3
  %9 = getelementptr i8, ptr %8, i64 8
  %.val = load ptr, ptr %9, align 8, !tbaa !12
  %10 = load ptr, ptr %.val, align 8, !tbaa !15
  %11 = icmp sgt i32 %6, 1
  br i1 %11, label %12, label %31

12:                                               ; preds = %5
  %13 = getelementptr i8, ptr %8, i64 4
  %.val28 = load i32, ptr %13, align 4, !tbaa !16
  %14 = tail call i32 (ptr, ...) @printf(ptr noundef nonnull dereferenceable(1) @.str, i32 noundef %.val28)
  %15 = load ptr, ptr %7, align 8, !tbaa !3
  %16 = getelementptr i8, ptr %15, i64 4
  %.val2932 = load i32, ptr %16, align 4, !tbaa !16
  %17 = icmp sgt i32 %.val2932, 0
  br i1 %17, label %.lr.ph, label %.critedge

.lr.ph:                                           ; preds = %12, %.lr.ph
  %indvars.iv = phi i64 [ %indvars.iv.next, %.lr.ph ], [ 0, %12 ]
  %18 = phi ptr [ %24, %.lr.ph ], [ %15, %12 ]
  %19 = getelementptr i8, ptr %18, i64 8
  %.val27 = load ptr, ptr %19, align 8, !tbaa !12
  %20 = getelementptr inbounds nuw ptr, ptr %.val27, i64 %indvars.iv
  %21 = load ptr, ptr %20, align 8, !tbaa !15
  %22 = getelementptr i8, ptr %21, i64 8
  %.val31 = load ptr, ptr %22, align 8, !tbaa !17
  %23 = tail call i32 (ptr, ...) @printf(ptr noundef nonnull dereferenceable(1) @.str.1, ptr noundef %.val31)
  %indvars.iv.next = add nuw nsw i64 %indvars.iv, 1
  %24 = load ptr, ptr %7, align 8, !tbaa !3
  %25 = getelementptr i8, ptr %24, i64 4
  %.val29 = load i32, ptr %25, align 4, !tbaa !16
  %26 = sext i32 %.val29 to i64
  %27 = icmp slt i64 %indvars.iv.next, %26
  br i1 %27, label %.lr.ph, label %.critedge, !llvm.loop !31

.critedge:                                        ; preds = %.lr.ph, %12
  %putchar = tail call i32 @putchar(i32 10)
  %28 = getelementptr inbounds nuw i8, ptr %10, i64 8
  %29 = load ptr, ptr %28, align 8, !tbaa !17
  %30 = tail call i32 (ptr, ...) @printf(ptr noundef nonnull dereferenceable(1) @.str.3, ptr noundef %29)
  br label %31

31:                                               ; preds = %.critedge, %5
  %32 = getelementptr inbounds nuw i8, ptr %10, i64 176
  store ptr %3, ptr %32, align 8, !tbaa !33
  %33 = getelementptr inbounds nuw i8, ptr %3, i64 8
  store ptr null, ptr %33, align 8, !tbaa !34
  %34 = getelementptr inbounds nuw i8, ptr %3, i64 24
  %35 = load ptr, ptr %34, align 8, !tbaa !35
  %36 = getelementptr i8, ptr %35, i64 4
  %.val30 = load i32, ptr %36, align 4, !tbaa !16
  %37 = icmp eq i32 %.val30, 1
  br i1 %37, label %38, label %41

38:                                               ; preds = %31
  tail call void @Abc_DesFree(ptr noundef nonnull %3, ptr noundef nonnull %10) #4
  store ptr null, ptr %32, align 8, !tbaa !33
  %39 = tail call ptr @Extra_UtilStrsav(ptr noundef %0) #4
  %40 = getelementptr inbounds nuw i8, ptr %10, i64 16
  store ptr %39, ptr %40, align 8, !tbaa !36
  br label %43

41:                                               ; preds = %31
  %42 = tail call i32 @Abc_NtkIsAcyclicHierarchy(ptr noundef nonnull %10) #4
  br label %43

43:                                               ; preds = %38, %41, %2
  %.0 = phi ptr [ null, %2 ], [ %10, %41 ], [ %10, %38 ]
  ret ptr %.0
}

declare ptr @Ver_ParseFile(ptr noundef, ptr noundef, i32 noundef, i32 noundef) local_unnamed_addr #1

declare i32 @Abc_DesFindTopLevelModels(ptr noundef) local_unnamed_addr #1

; Function Attrs: nofree nounwind
declare noundef i32 @printf(ptr noundef readonly captures(none), ...) local_unnamed_addr #2

declare void @Abc_DesFree(ptr noundef, ptr noundef) local_unnamed_addr #1

declare ptr @Extra_UtilStrsav(ptr noundef) local_unnamed_addr #1

declare i32 @Abc_NtkIsAcyclicHierarchy(ptr noundef) local_unnamed_addr #1

; Function Attrs: nofree nounwind
declare noundef i32 @putchar(i32 noundef) local_unnamed_addr #3


!llvm.module.flags = !{!0, !1, !2}

!0 = !{i32 1, !"wchar_size", i32 4}
!1 = !{i32 8, !"PIC Level", i32 2}
!2 = !{i32 7, !"uwtable", i32 2}
!3 = !{!4, !9, i64 16}
!4 = !{!"Abc_Des_t_", !5, i64 0, !6, i64 8, !9, i64 16, !9, i64 24, !10, i64 32, !11, i64 40, !6, i64 48}
!5 = !{!"p1 omnipotent char", !6, i64 0}
!6 = !{!"any pointer", !7, i64 0}
!7 = !{!"omnipotent char", !8, i64 0}
!8 = !{!"Simple C/C++ TBAA"}
!9 = !{!"p1 _ZTS10Vec_Ptr_t_", !6, i64 0}
!10 = !{!"p1 _ZTS9st__table", !6, i64 0}
!11 = !{!"p1 _ZTS10Abc_Des_t_", !6, i64 0}
!12 = !{!13, !6, i64 8}
!13 = !{!"Vec_Ptr_t_", !14, i64 0, !14, i64 4, !6, i64 8}
!14 = !{!"int", !7, i64 0}
!15 = !{!6, !6, i64 0}
!16 = !{!13, !14, i64 4}
!17 = !{!18, !5, i64 8}
!18 = !{!"Abc_Ntk_t_", !14, i64 0, !14, i64 4, !5, i64 8, !5, i64 16, !19, i64 24, !9, i64 32, !9, i64 40, !9, i64 48, !9, i64 56, !9, i64 64, !9, i64 72, !9, i64 80, !9, i64 88, !7, i64 96, !14, i64 140, !14, i64 144, !14, i64 148, !14, i64 152, !20, i64 160, !14, i64 168, !11, i64 176, !20, i64 184, !14, i64 192, !14, i64 196, !14, i64 200, !21, i64 208, !14, i64 216, !22, i64 224, !24, i64 240, !25, i64 248, !6, i64 256, !26, i64 264, !6, i64 272, !27, i64 280, !14, i64 284, !28, i64 288, !9, i64 296, !23, i64 304, !29, i64 312, !9, i64 320, !20, i64 328, !6, i64 336, !6, i64 344, !20, i64 352, !6, i64 360, !6, i64 368, !28, i64 376, !28, i64 384, !5, i64 392, !30, i64 400, !9, i64 408, !28, i64 416, !28, i64 424, !9, i64 432, !28, i64 440, !28, i64 448, !28, i64 456}
!19 = !{!"p1 _ZTS9Nm_Man_t_", !6, i64 0}
!20 = !{!"p1 _ZTS10Abc_Ntk_t_", !6, i64 0}
!21 = !{!"double", !7, i64 0}
!22 = !{!"Vec_Int_t_", !14, i64 0, !14, i64 4, !23, i64 8}
!23 = !{!"p1 int", !6, i64 0}
!24 = !{!"p1 _ZTS12Mem_Fixed_t_", !6, i64 0}
!25 = !{!"p1 _ZTS11Mem_Step_t_", !6, i64 0}
!26 = !{!"p1 _ZTS14Abc_ManTime_t_", !6, i64 0}
!27 = !{!"float", !7, i64 0}
!28 = !{!"p1 _ZTS10Vec_Int_t_", !6, i64 0}
!29 = !{!"p1 _ZTS10Abc_Cex_t_", !6, i64 0}
!30 = !{!"p1 float", !6, i64 0}
!31 = distinct !{!31, !32}
!32 = !{!"llvm.loop.mustprogress"}
!33 = !{!18, !11, i64 176}
!34 = !{!4, !6, i64 8}
!35 = !{!4, !9, i64 24}
!36 = !{!18, !5, i64 16}
